target datalayout = "e-m:e-p270:32:32-p271:32:32-p272:64:64-i64:64-i128:128-f80:128-n8:16:32:64-S128"
target triple = "x86_64-unknown-linux-gnu"

%"class.icu_75::Formattable" = type { %"class.icu_75::UObject", %union.anon, ptr, ptr, i32, %"class.icu_75::UnicodeString" }
%"class.icu_75::UObject" = type { ptr }
%union.anon = type { %struct.anon }
%struct.anon = type { ptr, i32 }
%"class.icu_75::UnicodeString" = type { %"class.icu_75::Replaceable", %"union.icu_75::UnicodeString::StackBufferOrFields" }
%"class.icu_75::Replaceable" = type { %"class.icu_75::UObject" }
%"union.icu_75::UnicodeString::StackBufferOrFields" = type { %struct.anon.1, [32 x i8] }
%struct.anon.1 = type { i16, i32, i32, ptr }
%"class.icu_75::Measure" = type { %"class.icu_75::UObject", %"class.icu_75::Formattable", ptr }

@_ZTIN6icu_757UObjectE = external constant ptr
@_ZTIN6icu_757MeasureE = external constant ptr

; Function Attrs: mustprogress nounwind uwtable
define linkonce_odr noundef nonnull align 8 dereferenceable(112) ptr @_ZNK6icu_757Measure9getNumberEv(ptr noundef nonnull align 8 dereferenceable(128) %this) #0 comdat align 2 {
entry:
  %this.addr = alloca ptr, align 8
  store ptr %this, ptr %this.addr, align 8
  %this1 = load ptr, ptr %this.addr, align 8
  %number = getelementptr inbounds %"class.icu_75::Measure", ptr %this1, i32 0, i32 1
  ret ptr %number
}

; Function Attrs: mustprogress nounwind uwtable
define internal noundef signext i8 @_ZN6icu_75L17instanceOfMeasureEPKNS_7UObjectE(ptr noundef %a) #0 {
entry:
  %a.addr = alloca ptr, align 8
  store ptr %a, ptr %a.addr, align 8
  %0 = load ptr, ptr %a.addr, align 8
  %1 = icmp eq ptr %0, null
  br i1 %1, label %dynamic_cast.null, label %dynamic_cast.notnull

dynamic_cast.notnull:                             ; preds = %entry
  %2 = call ptr @__dynamic_cast(ptr %0, ptr @_ZTIN6icu_757UObjectE, ptr @_ZTIN6icu_757MeasureE, i64 0) #10
  br label %dynamic_cast.end

dynamic_cast.null:                                ; preds = %entry
  br label %dynamic_cast.end

dynamic_cast.end:                                 ; preds = %dynamic_cast.null, %dynamic_cast.notnull
  %3 = phi ptr [ %2, %dynamic_cast.notnull ], [ null, %dynamic_cast.null ]
  %cmp = icmp ne ptr %3, null
  %conv = zext i1 %cmp to i8
  ret i8 %conv
}

; Function Attrs: mustprogress nounwind uwtable
define internal noundef signext i8 @_ZL9U_FAILURE10UErrorCode(i32 noundef %code) #0 {
entry:
  %code.addr = alloca i32, align 4
  store i32 %code, ptr %code.addr, align 4
  %0 = load i32, ptr %code.addr, align 4
  %cmp = icmp sgt i32 %0, 0
  %conv = zext i1 %cmp to i8
  ret i8 %conv
}

; Function Attrs: mustprogress uwtable
define noundef i32 @_ZNK6icu_7511Formattable7getLongER10UErrorCode(ptr noundef nonnull align 8 dereferenceable(112) %this, ptr noundef nonnull align 4 dereferenceable(4) %status) #1 align 2 {
entry:
  %retval = alloca i32, align 4
  %this.addr = alloca ptr, align 8
  %status.addr = alloca ptr, align 8
  store ptr %this, ptr %this.addr, align 8
  store ptr %status, ptr %status.addr, align 8
  %this1 = load ptr, ptr %this.addr, align 8
  %0 = load ptr, ptr %status.addr, align 8
  %1 = load i32, ptr %0, align 4
  %call = call noundef signext i8 @_ZL9U_FAILURE10UErrorCode(i32 noundef %1)
  %tobool = icmp ne i8 %call, 0
  br i1 %tobool, label %if.then, label %if.end

if.then:                                          ; preds = %entry
  store i32 0, ptr %retval, align 4
  br label %return

if.end:                                           ; preds = %entry
  %fType = getelementptr inbounds %"class.icu_75::Formattable", ptr %this1, i32 0, i32 4
  %2 = load i32, ptr %fType, align 8
  switch i32 %2, label %sw.default [
    i32 2, label %sw.bb
    i32 5, label %sw.bb2
    i32 1, label %sw.bb11
    i32 6, label %sw.bb22
  ]

sw.bb:                                            ; preds = %if.end
  %fValue = getelementptr inbounds %"class.icu_75::Formattable", ptr %this1, i32 0, i32 1
  %3 = load i64, ptr %fValue, align 8
  %conv = trunc i64 %3 to i32
  store i32 %conv, ptr %retval, align 4
  br label %return

sw.bb2:                                           ; preds = %if.end
  %fValue3 = getelementptr inbounds %"class.icu_75::Formattable", ptr %this1, i32 0, i32 1
  %4 = load i64, ptr %fValue3, align 8
  %cmp = icmp sgt i64 %4, 2147483647
  br i1 %cmp, label %if.then4, label %if.else

if.then4:                                         ; preds = %sw.bb2
  %5 = load ptr, ptr %status.addr, align 8
  store i32 3, ptr %5, align 4
  store i32 2147483647, ptr %retval, align 4
  br label %return

if.else:                                          ; preds = %sw.bb2
  %fValue5 = getelementptr inbounds %"class.icu_75::Formattable", ptr %this1, i32 0, i32 1
  %6 = load i64, ptr %fValue5, align 8
  %cmp6 = icmp slt i64 %6, -2147483648
  br i1 %cmp6, label %if.then7, label %if.else8

if.then7:                                         ; preds = %if.else
  %7 = load ptr, ptr %status.addr, align 8
  store i32 3, ptr %7, align 4
  store i32 -2147483648, ptr %retval, align 4
  br label %return

if.else8:                                         ; preds = %if.else
  %fValue9 = getelementptr inbounds %"class.icu_75::Formattable", ptr %this1, i32 0, i32 1
  %8 = load i64, ptr %fValue9, align 8
  %conv10 = trunc i64 %8 to i32
  store i32 %conv10, ptr %retval, align 4
  br label %return

sw.bb11:                                          ; preds = %if.end
  %fValue12 = getelementptr inbounds %"class.icu_75::Formattable", ptr %this1, i32 0, i32 1
  %9 = load double, ptr %fValue12, align 8
  %cmp13 = fcmp ogt double %9, 0x41DFFFFFFFC00000
  br i1 %cmp13, label %if.then14, label %if.else15

if.then14:                                        ; preds = %sw.bb11
  %10 = load ptr, ptr %status.addr, align 8
  store i32 3, ptr %10, align 4
  store i32 2147483647, ptr %retval, align 4
  br label %return

if.else15:                                        ; preds = %sw.bb11
  %fValue16 = getelementptr inbounds %"class.icu_75::Formattable", ptr %this1, i32 0, i32 1
  %11 = load double, ptr %fValue16, align 8
  %cmp17 = fcmp olt double %11, 0xC1E0000000000000
  br i1 %cmp17, label %if.then18, label %if.else19

if.then18:                                        ; preds = %if.else15
  %12 = load ptr, ptr %status.addr, align 8
  store i32 3, ptr %12, align 4
  store i32 -2147483648, ptr %retval, align 4
  br label %return

if.else19:                                        ; preds = %if.else15
  %fValue20 = getelementptr inbounds %"class.icu_75::Formattable", ptr %this1, i32 0, i32 1
  %13 = load double, ptr %fValue20, align 8
  %conv21 = fptosi double %13 to i32
  store i32 %conv21, ptr %retval, align 4
  br label %return

sw.bb22:                                          ; preds = %if.end
  %fValue23 = getelementptr inbounds %"class.icu_75::Formattable", ptr %this1, i32 0, i32 1
  %14 = load ptr, ptr %fValue23, align 8
  %cmp24 = icmp eq ptr %14, null
  br i1 %cmp24, label %if.then25, label %if.end26

if.then25:                                        ; preds = %sw.bb22
  %15 = load ptr, ptr %status.addr, align 8
  store i32 7, ptr %15, align 4
  store i32 0, ptr %retval, align 4
  br label %return

if.end26:                                         ; preds = %sw.bb22
  %fValue27 = getelementptr inbounds %"class.icu_75::Formattable", ptr %this1, i32 0, i32 1
  %16 = load ptr, ptr %fValue27, align 8
  %call28 = call noundef signext i8 @_ZN6icu_75L17instanceOfMeasureEPKNS_7UObjectE(ptr noundef %16)
  %tobool29 = icmp ne i8 %call28, 0
  br i1 %tobool29, label %if.then30, label %if.end34

if.then30:                                        ; preds = %if.end26
  %fValue31 = getelementptr inbounds %"class.icu_75::Formattable", ptr %this1, i32 0, i32 1
  %17 = load ptr, ptr %fValue31, align 8
  %call32 = call noundef nonnull align 8 dereferenceable(112) ptr @_ZNK6icu_757Measure9getNumberEv(ptr noundef nonnull align 8 dereferenceable(128) %17)
  %18 = load ptr, ptr %status.addr, align 8
  %call33 = call noundef i32 @_ZNK6icu_7511Formattable7getLongER10UErrorCode(ptr noundef nonnull align 8 dereferenceable(112) %call32, ptr noundef nonnull align 4 dereferenceable(4) %18)
  store i32 %call33, ptr %retval, align 4
  br label %return

if.end34:                                         ; preds = %if.end26
  br label %sw.default

sw.default:                                       ; preds = %if.end34, %if.end
  %19 = load ptr, ptr %status.addr, align 8
  store i32 3, ptr %19, align 4
  store i32 0, ptr %retval, align 4
  br label %return

return:                                           ; preds = %sw.default, %if.then30, %if.then25, %if.else19, %if.then18, %if.then14, %if.else8, %if.then7, %if.then4, %sw.bb, %if.then
  %20 = load i32, ptr %retval, align 4
  ret i32 %20
}