; Function Attrs: mustprogress nofree nounwind memory(read, argmem: readwrite) uwtable
define noundef i32 @_ZNK6icu_7511Formattable7getLongER10UErrorCode(ptr nocapture noundef nonnull readonly align 8 dereferenceable(112) %this, ptr nocapture noundef nonnull align 4 dereferenceable(4) %status) local_unnamed_addr #10 align 2 {
entry:
  %0 = load i32, ptr %status, align 4
  %cmp.i = icmp slt i32 %0, 1
  br i1 %cmp.i, label %if.end.us, label %return

if.end.us:                                        ; preds = %entry, %if.end26.us
  %this.tr17.us = phi ptr [ %number.i.us, %if.end26.us ], [ %this, %entry ]
  %fType.us = getelementptr inbounds i8, ptr %this.tr17.us, i64 40
  %1 = load i32, ptr %fType.us, align 8
  switch i32 %1, label %sw.default [
    i32 2, label %sw.bb
    i32 5, label %sw.bb2
    i32 1, label %sw.bb11
    i32 6, label %sw.bb22.us
  ]

sw.bb22.us:                                       ; preds = %if.end.us
  %fValue23.us = getelementptr inbounds i8, ptr %this.tr17.us, i64 8
  %2 = load ptr, ptr %fValue23.us, align 8
  %cmp24.us = icmp eq ptr %2, null
  br i1 %cmp24.us, label %if.then25, label %if.end26.us

if.end26.us:                                      ; preds = %sw.bb22.us
  %3 = tail call ptr @__dynamic_cast(ptr nonnull %2, ptr nonnull @_ZTIN6icu_757UObjectE, ptr nonnull @_ZTIN6icu_757MeasureE, i64 0) #16
  %cmp.i10.not.us = icmp eq ptr %3, null
  %number.i.us = getelementptr inbounds i8, ptr %2, i64 8
  br i1 %cmp.i10.not.us, label %sw.default, label %if.end.us

sw.bb:                                            ; preds = %if.end.us
  %fValue = getelementptr inbounds i8, ptr %this.tr17.us, i64 8
  %4 = load i64, ptr %fValue, align 8
  %conv = trunc i64 %4 to i32
  br label %return

sw.bb2:                                           ; preds = %if.end.us
  %fValue3 = getelementptr inbounds i8, ptr %this.tr17.us, i64 8
  %5 = load i64, ptr %fValue3, align 8
  %cmp = icmp sgt i64 %5, 2147483647
  br i1 %cmp, label %if.then4, label %if.else

if.then4:                                         ; preds = %sw.bb2
  store i32 3, ptr %status, align 4
  br label %return

if.else:                                          ; preds = %sw.bb2
  %cmp6 = icmp slt i64 %5, -2147483648
  br i1 %cmp6, label %if.then7, label %if.else8

if.then7:                                         ; preds = %if.else
  store i32 3, ptr %status, align 4
  br label %return

if.else8:                                         ; preds = %if.else
  %conv10 = trunc i64 %5 to i32
  br label %return

sw.bb11:                                          ; preds = %if.end.us
  %fValue12 = getelementptr inbounds i8, ptr %this.tr17.us, i64 8
  %6 = load double, ptr %fValue12, align 8
  %cmp13 = fcmp ogt double %6, 0x41DFFFFFFFC00000
  br i1 %cmp13, label %if.then14, label %if.else15

if.then14:                                        ; preds = %sw.bb11
  store i32 3, ptr %status, align 4
  br label %return

if.else15:                                        ; preds = %sw.bb11
  %cmp17 = fcmp olt double %6, 0xC1E0000000000000
  br i1 %cmp17, label %if.then18, label %if.else19

if.then18:                                        ; preds = %if.else15
  store i32 3, ptr %status, align 4
  br label %return

if.else19:                                        ; preds = %if.else15
  %conv21 = fptosi double %6 to i32
  br label %return

if.then25:                                        ; preds = %sw.bb22.us
  store i32 7, ptr %status, align 4
  br label %return

sw.default:                                       ; preds = %if.end.us, %if.end26.us
  store i32 3, ptr %status, align 4
  br label %return

return:                                           ; preds = %entry, %sw.default, %if.then25, %if.else19, %if.then18, %if.then14, %if.else8, %if.then7, %if.then4, %sw.bb
  %retval.0 = phi i32 [ 0, %sw.default ], [ 0, %if.then25 ], [ 2147483647, %if.then14 ], [ -2147483648, %if.then18 ], [ %conv21, %if.else19 ], [ 2147483647, %if.then4 ], [ -2147483648, %if.then7 ], [ %conv10, %if.else8 ], [ %conv, %sw.bb ], [ 0, %entry ]
  ret i32 %retval.0
}